target datalayout = "e-m:e-p270:32:32-p271:32:32-p272:64:64-i64:64-i128:128-f80:128-n8:16:32:64-S128"
target triple = "x86_64-unknown-linux-gnu"

%"class.std::__cxx11::basic_string" = type { %"struct.std::__cxx11::basic_string<char>::_Alloc_hider", i64, %union.anon }
%"struct.std::__cxx11::basic_string<char>::_Alloc_hider" = type { ptr }
%union.anon = type { i64, [8 x i8] }
%"class.node::inspector::protocol::DispatchResponse" = type <{ i32, [4 x i8], %"class.std::__cxx11::basic_string", i32, [4 x i8] }>

; Function Attrs: mustprogress nounwind uwtable
define linkonce_odr dso_local void @_ZN4node9inspector8protocol16DispatchResponseD2Ev(ptr noundef nonnull align 8 dereferenceable(44) %this) unnamed_addr #0 comdat align 2 {
entry:
  %this.addr = alloca ptr, align 8
  store ptr %this, ptr %this.addr, align 8
  %this1 = load ptr, ptr %this.addr, align 8
  %m_errorMessage = getelementptr inbounds %"class.node::inspector::protocol::DispatchResponse", ptr %this1, i32 0, i32 2
  call void @_ZNSt7__cxx1112basic_stringIcSt11char_traitsIcESaIcEED1Ev(ptr noundef nonnull align 8 dereferenceable(32) %m_errorMessage) #13
  ret void
}

; Function Attrs: mustprogress nounwind uwtable
define linkonce_odr dso_local void @_ZN4node9inspector8protocol16DispatchResponseC2Ev(ptr noundef nonnull align 8 dereferenceable(44) %this) unnamed_addr #0 comdat align 2 {
entry:
  %this.addr = alloca ptr, align 8
  store ptr %this, ptr %this.addr, align 8
  %this1 = load ptr, ptr %this.addr, align 8
  %m_errorMessage = getelementptr inbounds %"class.node::inspector::protocol::DispatchResponse", ptr %this1, i32 0, i32 2
  call void @_ZNSt7__cxx1112basic_stringIcSt11char_traitsIcESaIcEEC1Ev(ptr noundef nonnull align 8 dereferenceable(32) %m_errorMessage) #13
  ret void
}

; Function Attrs: mustprogress nounwind uwtable
define dso_local void @_ZN4node9inspector8protocol16DispatchResponse2OKEv(ptr noalias sret(%"class.node::inspector::protocol::DispatchResponse") align 8 %agg.result) #0 align 2 {
entry:
  %result.ptr = alloca ptr, align 8
  %nrvo = alloca i1, align 1
  store ptr %agg.result, ptr %result.ptr, align 8
  store i1 false, ptr %nrvo, align 1
  call void @_ZN4node9inspector8protocol16DispatchResponseC2Ev(ptr noundef nonnull align 8 dereferenceable(44) %agg.result) #13
  %m_status = getelementptr inbounds %"class.node::inspector::protocol::DispatchResponse", ptr %agg.result, i32 0, i32 0
  store i32 0, ptr %m_status, align 8
  %m_errorCode = getelementptr inbounds %"class.node::inspector::protocol::DispatchResponse", ptr %agg.result, i32 0, i32 3
  store i32 -32700, ptr %m_errorCode, align 8
  store i1 true, ptr %nrvo, align 1
  %nrvo.val = load i1, ptr %nrvo, align 1
  br i1 %nrvo.val, label %nrvo.skipdtor, label %nrvo.unused

nrvo.unused:                                      ; preds = %entry
  call void @_ZN4node9inspector8protocol16DispatchResponseD2Ev(ptr noundef nonnull align 8 dereferenceable(44) %agg.result) #13
  br label %nrvo.skipdtor

nrvo.skipdtor:                                    ; preds = %nrvo.unused, %entry
  ret void
}