; Function Attrs: mustprogress nounwind uwtable
define dso_local void @_ZN4node9inspector8protocol16DispatchResponse2OKEv(ptr noalias sret(%"class.node::inspector::protocol::DispatchResponse") align 8 %agg.result) local_unnamed_addr #1 align 2 {
entry:
  %m_errorMessage.i = getelementptr inbounds i8, ptr %agg.result, i64 8
  tail call void @_ZNSt7__cxx1112basic_stringIcSt11char_traitsIcESaIcEEC1Ev(ptr noundef nonnull align 8 dereferenceable(32) %m_errorMessage.i) #27
  store i32 0, ptr %agg.result, align 8
  %m_errorCode = getelementptr inbounds i8, ptr %agg.result, i64 40
  store i32 -32700, ptr %m_errorCode, align 8
  ret void
}